target datalayout = "e-m:e-p270:32:32-p271:32:32-p272:64:64-i64:64-i128:128-f80:128-n8:16:32:64-S128"
target triple = "x86_64-unknown-linux-gnu"

; Function Attrs: mustprogress uwtable
define void @_ZN6icu_7522RuleBasedBreakIteratorC2Ev(ptr noundef nonnull align 8 dereferenceable(745) %this) unnamed_addr #1 align 2 {
entry:
  %this.addr = alloca ptr, align 8
  store ptr %this, ptr %this.addr, align 8
  %this1 = load ptr, ptr %this.addr, align 8
  call void @_ZN6icu_7522RuleBasedBreakIteratorC2EP10UErrorCode(ptr noundef nonnull align 8 dereferenceable(745) %this1, ptr noundef null)
  ret void
}

; Function Attrs: mustprogress uwtable
define void @_ZN6icu_7522RuleBasedBreakIteratorC2ERKS0_(ptr noundef nonnull align 8 dereferenceable(745) %this, ptr noundef nonnull align 8 dereferenceable(745) %other) unnamed_addr #1 align 2 personality ptr @__gxx_personality_v0 {
entry:
  %this.addr = alloca ptr, align 8
  %other.addr = alloca ptr, align 8
  %exn.slot = alloca ptr, align 8
  %ehselector.slot = alloca i32, align 4
  store ptr %this, ptr %this.addr, align 8
  store ptr %other, ptr %other.addr, align 8
  %this1 = load ptr, ptr %this.addr, align 8
  call void @_ZN6icu_7522RuleBasedBreakIteratorC2Ev(ptr noundef nonnull align 8 dereferenceable(745) %this1)
  %0 = load ptr, ptr %other.addr, align 8
  %call = invoke noundef nonnull align 8 dereferenceable(745) ptr @_ZN6icu_7522RuleBasedBreakIteratoraSERKS0_(ptr noundef nonnull align 8 dereferenceable(745) %this1, ptr noundef nonnull align 8 dereferenceable(745) %0)
          to label %invoke.cont unwind label %lpad

invoke.cont:                                      ; preds = %entry
  ret void

lpad:                                             ; preds = %entry
  %1 = landingpad { ptr, i32 }
          cleanup
  %2 = extractvalue { ptr, i32 } %1, 0
  store ptr %2, ptr %exn.slot, align 8
  %3 = extractvalue { ptr, i32 } %1, 1
  store i32 %3, ptr %ehselector.slot, align 4
  call void @_ZN6icu_7522RuleBasedBreakIteratorD2Ev(ptr noundef nonnull align 8 dereferenceable(745) %this1) #6
  br label %eh.resume

eh.resume:                                        ; preds = %lpad
  %exn = load ptr, ptr %exn.slot, align 8
  %sel = load i32, ptr %ehselector.slot, align 4
  %lpad.val = insertvalue { ptr, i32 } poison, ptr %exn, 0
  %lpad.val2 = insertvalue { ptr, i32 } %lpad.val, i32 %sel, 1
  resume { ptr, i32 } %lpad.val2
}